; ModuleID = 'source-C-CXX/38/1760.c'
source_filename = "source-C-CXX/38/1760.c"
target datalayout = "e-m:e-p270:32:32-p271:32:32-p272:64:64-i64:64-f80:128-n8:16:32:64-S128"
target triple = "x86_64-pc-linux-gnu"

@.str = private unnamed_addr constant [4 x i8] c"%d\0A\00", align 1
@.str.1 = private unnamed_addr constant [18 x i8] c"%s %d %d %c %c %d\00", align 1
@.str.2 = private unnamed_addr constant [11 x i8] c"%s\0A%d\0A%ld\0A\00", align 1

; Function Attrs: nofree nounwind sspstrong uwtable
define dso_local void @main() local_unnamed_addr #0 {
  %1 = alloca i32, align 4
  %2 = alloca i32, align 4
  %3 = alloca i32, align 4
  %4 = alloca i32, align 4
  %5 = alloca [20 x i8], align 16
  %6 = alloca [20 x i8], align 16
  %7 = alloca i8, align 1
  %8 = alloca i8, align 1
  %9 = bitcast i32* %1 to i8*
  call void @llvm.lifetime.start.p0i8(i64 4, i8* nonnull %9) #4
  %10 = bitcast i32* %2 to i8*
  call void @llvm.lifetime.start.p0i8(i64 4, i8* nonnull %10) #4
  %11 = bitcast i32* %3 to i8*
  call void @llvm.lifetime.start.p0i8(i64 4, i8* nonnull %11) #4
  %12 = bitcast i32* %4 to i8*
  call void @llvm.lifetime.start.p0i8(i64 4, i8* nonnull %12) #4
  %13 = getelementptr inbounds [20 x i8], [20 x i8]* %5, i64 0, i64 0
  call void @llvm.lifetime.start.p0i8(i64 20, i8* nonnull %13) #4
  %14 = getelementptr inbounds [20 x i8], [20 x i8]* %6, i64 0, i64 0
  call void @llvm.lifetime.start.p0i8(i64 20, i8* nonnull %14) #4
  call void @llvm.lifetime.start.p0i8(i64 1, i8* nonnull %7) #4
  call void @llvm.lifetime.start.p0i8(i64 1, i8* nonnull %8) #4
  %15 = call i32 (i8*, ...) @__isoc99_scanf(i8* getelementptr inbounds ([4 x i8], [4 x i8]* @.str, i64 0, i64 0), i32* nonnull %3)
  %16 = load i32, i32* %3, align 4, !tbaa !5
  %17 = icmp slt i32 %16, 1
  br i1 %17, label %58, label %18

18:                                               ; preds = %0, %51
  %19 = phi i64 [ %54, %51 ], [ 0, %0 ]
  %20 = phi i32 [ %52, %51 ], [ 0, %0 ]
  %21 = phi i32 [ %55, %51 ], [ 1, %0 ]
  %22 = call i32 (i8*, ...) @__isoc99_scanf(i8* getelementptr inbounds ([18 x i8], [18 x i8]* @.str.1, i64 0, i64 0), i8* nonnull %13, i32* nonnull %1, i32* nonnull %2, i8* nonnull %7, i8* nonnull %8, i32* nonnull %4)
  %23 = load i32, i32* %1, align 4, !tbaa !5
  %24 = icmp sgt i32 %23, 80
  %25 = load i32, i32* %4, align 4
  %26 = icmp sgt i32 %25, 0
  %27 = select i1 %24, i1 %26, i1 false
  %28 = select i1 %27, i32 8000, i32 0
  %29 = icmp sgt i32 %23, 85
  %30 = load i32, i32* %2, align 4
  %31 = icmp sgt i32 %30, 80
  %32 = select i1 %29, i1 %31, i1 false
  %33 = select i1 %32, i32 4000, i32 0
  %34 = icmp sgt i32 %23, 90
  %35 = select i1 %34, i32 2000, i32 0
  %36 = load i8, i8* %8, align 1
  %37 = icmp eq i8 %36, 89
  %38 = select i1 %29, i1 %37, i1 false
  %39 = select i1 %38, i32 1000, i32 0
  %40 = load i8, i8* %7, align 1
  %41 = icmp eq i8 %40, 89
  %42 = select i1 %31, i1 %41, i1 false
  %43 = select i1 %42, i32 850, i32 0
  %44 = add nuw nsw i32 %28, %35
  %45 = add nuw nsw i32 %44, %33
  %46 = add nuw nsw i32 %45, %39
  %47 = add nuw nsw i32 %46, %43
  %48 = icmp ugt i32 %47, %20
  br i1 %48, label %49, label %51

49:                                               ; preds = %18
  %50 = call i8* @strcpy(i8* noundef nonnull %14, i8* noundef nonnull %13) #4
  br label %51

51:                                               ; preds = %49, %18
  %52 = phi i32 [ %47, %49 ], [ %20, %18 ]
  %53 = zext i32 %47 to i64
  %54 = add nuw nsw i64 %19, %53
  %55 = add nuw nsw i32 %21, 1
  %56 = load i32, i32* %3, align 4, !tbaa !5
  %57 = icmp slt i32 %21, %56
  br i1 %57, label %18, label %58, !llvm.loop !9

58:                                               ; preds = %51, %0
  %59 = phi i32 [ 0, %0 ], [ %52, %51 ]
  %60 = phi i64 [ 0, %0 ], [ %54, %51 ]
  %61 = call i32 (i8*, ...) @printf(i8* nonnull dereferenceable(1) getelementptr inbounds ([11 x i8], [11 x i8]* @.str.2, i64 0, i64 0), i8* nonnull %14, i32 %59, i64 %60)
  call void @llvm.lifetime.end.p0i8(i64 1, i8* nonnull %8) #4
  call void @llvm.lifetime.end.p0i8(i64 1, i8* nonnull %7) #4
  call void @llvm.lifetime.end.p0i8(i64 20, i8* nonnull %14) #4
  call void @llvm.lifetime.end.p0i8(i64 20, i8* nonnull %13) #4
  call void @llvm.lifetime.end.p0i8(i64 4, i8* nonnull %12) #4
  call void @llvm.lifetime.end.p0i8(i64 4, i8* nonnull %11) #4
  call void @llvm.lifetime.end.p0i8(i64 4, i8* nonnull %10) #4
  call void @llvm.lifetime.end.p0i8(i64 4, i8* nonnull %9) #4
  ret void
}

; Function Attrs: argmemonly mustprogress nofree nosync nounwind willreturn
declare void @llvm.lifetime.start.p0i8(i64 immarg, i8* nocapture) #1

; Function Attrs: nofree nounwind
declare noundef i32 @__isoc99_scanf(i8* nocapture noundef readonly, ...) local_unnamed_addr #2

; Function Attrs: argmemonly mustprogress nofree nounwind willreturn
declare i8* @strcpy(i8* noalias returned writeonly, i8* noalias nocapture readonly) local_unnamed_addr #3

; Function Attrs: nofree nounwind
declare noundef i32 @printf(i8* nocapture noundef readonly, ...) local_unnamed_addr #2

; Function Attrs: argmemonly mustprogress nofree nosync nounwind willreturn
declare void @llvm.lifetime.end.p0i8(i64 immarg, i8* nocapture) #1


!llvm.module.flags = !{!0, !1, !2, !3}
!llvm.ident = !{!4}

!0 = !{i32 1, !"wchar_size", i32 4}
!1 = !{i32 7, !"PIC Level", i32 2}
!2 = !{i32 7, !"PIE Level", i32 2}
!3 = !{i32 7, !"uwtable", i32 1}
!4 = !{!"clang version 13.0.0"}
!5 = !{!6, !6, i64 0}
!6 = !{!"int", !7, i64 0}
!7 = !{!"omnipotent char", !8, i64 0}
!8 = !{!"Simple C/C++ TBAA"}
!9 = distinct !{!9, !10}
!10 = !{!"llvm.loop.mustprogress"}
